; Function Attrs: mustprogress nofree norecurse nosync nounwind null_pointer_is_valid sspstrong willreturn memory(readwrite, inaccessiblemem: none) uwtable
define void @stat_tap_set_field_data(ptr noundef readonly captures(none) %0, i32 noundef %1, i32 noundef %2, ptr noundef readonly captures(none) %3) local_unnamed_addr #8 {
  %5 = getelementptr inbounds nuw i8, ptr %0, i64 24
  %6 = load ptr, ptr %5, align 8
  %7 = zext i32 %1 to i64
  %8 = getelementptr ptr, ptr %6, i64 %7
  %9 = load ptr, ptr %8, align 8
  %10 = zext i32 %2 to i64
  %11 = getelementptr %struct._stat_tap_table_item_type, ptr %9, i64 %10
  tail call void @llvm.memcpy.p0.p0.i64(ptr noundef align 8 dereferenceable(24) %11, ptr noundef align 8 dereferenceable(24) %3, i64 24, i1 false)
  ret void
}